Archive member included because of file (symbol)

./libcsud.a(device.keyboard.c.o)
                              build/keyboard.o (KeyboardGetAddress)
./libcsud.a(platform.c.o)     ./libcsud.a(device.keyboard.c.o) (MemoryAllocate)
./libcsud.a(usbd.c.o)         build/kmain.o (UsbInitialise)
./libcsud.a(device.hid.c.o)   ./libcsud.a(device.keyboard.c.o) (HidReadDevice)
./libcsud.a(device.hub.c.o)   ./libcsud.a(usbd.c.o) (HubPortReset)
./libcsud.a(hcd.designware20.c.o)
                              ./libcsud.a(usbd.c.o) (HcdSumbitControlMessage)
./libcsud.a(hcd.designware20.roothub.c.o)
                              ./libcsud.a(hcd.designware20.c.o) (HcdProcessRootHubMessage)
./libcsud.a(platform.armv6.c.o)
                              ./libcsud.a(hcd.designware20.c.o) (__aeabi_uidiv)
./libcsud.a(platform.broadcom2835.c.o)
                              ./libcsud.a(usbd.c.o) (MicroDelay)

Allocating common symbols
Common symbol       size              file

lr_irq              0x4               build/sched.o
CorePhysical        0x4               ./libcsud.a(hcd.designware20.c.o)
call                0x4               build/syscall.o
commandLine         0x100             build/kmain.o
kernel_heap_limit   0x4               build/kheap.o
command             0x100             build/kmain.o
DeviceNumbers       0x4               ./libcsud.a(usbd.c.o)
kmain_process       0x58              build/sched.o
HostPhysical        0x4               ./libcsud.a(hcd.designware20.c.o)
stackPointer2       0x4               build/sched.o
kernel_heap_top     0x4               build/kheap.o
parameters          0x100             build/kmain.o
keyboards           0x10              ./libcsud.a(device.keyboard.c.o)
PowerPhysical       0x4               ./libcsud.a(hcd.designware20.c.o)
current_process     0x4               build/sched.o
Heap                0x4000            ./libcsud.a(platform.c.o)
Allocations         0xc00             ./libcsud.a(platform.c.o)
stackPointer        0x4               build/syscall.o
uart_error          0x4               build/uart.o

Memory Configuration

Name             Origin             Length             Attributes
RAM              0x0000000000008000 0x000000001fff8000
PERIPHERALS      0x0000000020000000 0x0000000000ffffff
*default*        0x0000000000000000 0xffffffffffffffff

Linker script and memory map

LOAD build/asm_tools.o
LOAD build/fb.o
LOAD build/hw.o
LOAD build/init.o
LOAD build/keyboard.o
LOAD build/kheap.o
LOAD build/pwm.o
LOAD build/sched.o
LOAD build/syscall.o
LOAD build/uart.o
LOAD build/util.o
LOAD build/kmain.o
                0x0000000000000200                KERNEL_STACK_SIZE = 0x200
                0x0000000000000200                SYS_STACK_SIZE = 0x200
                0x0000000000000200                IRQ_STACK_SIZE = 0x200
                0x0000000000100000                USER_STACKS_SIZE = 0x100000

.text           0x0000000000008000     0x9a68
 build/init.o(.text*)
 .text          0x0000000000008000       0xc4 build/init.o
                0x0000000000008000                _start
 *(.text*)
 .text          0x00000000000080c4       0x48 build/asm_tools.o
                0x00000000000080c4                Set32
                0x00000000000080cc                Get32
                0x00000000000080d4                delay
                0x00000000000080e8                memory_barrier
                0x0000000000008100                invalidate_cache
 .text          0x000000000000810c      0xd54 build/fb.o
                0x0000000000008160                MailboxWrite
                0x00000000000081d8                MailboxRead
                0x0000000000008278                FramebufferInitialize
                0x0000000000008794                put_pixel_RGB24
                0x0000000000008830                draw
                0x0000000000008950                drawRed
                0x00000000000089ec                drawBlue
                0x0000000000008a88                render
                0x0000000000008b80                newLine
                0x0000000000008bac                drawChar
                0x0000000000008be4                drawString
                0x0000000000008c40                drawStringWithoutNewLine
                0x0000000000008c98                drawVerticalLine
                0x0000000000008cf4                drawHorizontalLine
                0x0000000000008d60                prompt
                0x0000000000008d78                drawHelloConsole
                0x0000000000008dc4                clear
 .text          0x0000000000008e60      0x3a4 build/hw.o
                0x0000000000008e60                divide
                0x0000000000008ec8                get_date_ms
                0x0000000000008eec                set_date_ms
                0x0000000000008f84                set_next_tick
                0x0000000000008fdc                set_next_tick_default
                0x0000000000009028                timer_init
                0x0000000000009054                led_on
                0x0000000000009090                led_off
                0x00000000000090cc                led_switch
                0x00000000000090f8                led_status
                0x000000000000910c                led_init
                0x0000000000009140                led_blink
                0x00000000000091d4                hw_init
                0x00000000000091e4                terminate_kernel
 .text          0x0000000000009204      0x144 build/keyboard.o
                0x0000000000009204                KeyboardUpdate
                0x0000000000009288                KeyWasDown
                0x00000000000092b8                KeyboardGetChar
 .text          0x0000000000009348      0x360 build/kheap.o
                0x0000000000009348                aligned_value
                0x0000000000009394                kAlloc_aligned
                0x0000000000009548                kAlloc
                0x0000000000009634                kFree
                0x000000000000967c                kheap_init
 .text          0x00000000000096a8      0x224 build/pwm.o
                0x0000000000009840                audio_test
 .text          0x00000000000098cc      0x690 build/sched.o
                0x00000000000098cc                irq_handler
                0x0000000000009958                sys_exit
                0x0000000000009984                do_sys_exit
                0x0000000000009a2c                sys_yield
                0x0000000000009a4c                do_sys_yield
                0x0000000000009bb0                sched_init
                0x0000000000009be8                create_process
                0x0000000000009c98                elect
                0x0000000000009cb4                pouetpouet
                0x0000000000009cb8                sys_yieldto
                0x0000000000009ce8                do_sys_yieldto
 .text          0x0000000000009f5c      0x298 build/syscall.o
                0x0000000000009f5c                swi_handler
                0x000000000000a03c                sys_settime
                0x000000000000a074                sys_gettime
                0x000000000000a0e4                sys_reboot
                0x000000000000a104                pouet
                0x000000000000a108                sys_nop
                0x000000000000a134                do_sys_reboot
                0x000000000000a140                do_sys_nop
                0x000000000000a148                do_sys_settime
                0x000000000000a1c4                do_sys_gettime
 .text          0x000000000000a1f4      0x658 build/uart.o
                0x000000000000a1f4                uart_init
                0x000000000000a310                uart_send_str
                0x000000000000a3a4                uart_send_int
                0x000000000000a594                uart_receive_str
                0x000000000000a670                uart_receive_int
                0x000000000000a818                uart_is_receive_fifo_empty
 .text          0x000000000000a84c       0x10 build/util.o
                0x000000000000a84c                kernel_panic
 .text          0x000000000000a85c      0x388 build/kmain.o
                0x000000000000a85c                testAffichage
                0x000000000000a8c8                commandProcess
                0x000000000000aaa4                applyMethod
                0x000000000000aad4                keyboardLoop
                0x000000000000ab54                printHeader
                0x000000000000ab78                dummy
                0x000000000000ab94                kmain
 .text          0x000000000000abe4     0x1000 ./libcsud.a(device.keyboard.c.o)
                0x000000000000abe4                KeyboardDetached
                0x000000000000ac60                KeyboardDeallocate
                0x000000000000acd8                KeyboardIndex
                0x000000000000ad30                KeyboardGetAddress
                0x000000000000ad78                KeyboardScan
                0x000000000000b444                KeyboardCount
                0x000000000000b454                KeyboardSetLeds
                0x000000000000b670                KeyboardGetLedSupport
                0x000000000000b6bc                KeyboardPoll
                0x000000000000ba00                KeyboardGetModifiers
                0x000000000000ba4c                KeyboardGetKeyDownCount
                0x000000000000bab0                KeyboadGetKeyIsDown
                0x000000000000bb68                KeyboardGetKeyDown
 .text          0x000000000000bbe4      0x5c0 ./libcsud.a(platform.c.o)
                0x000000000000bbe4                MemoryReserve
                0x000000000000bbec                MemoryAllocate
                0x000000000000c03c                MemoryDeallocate
                0x000000000000c154                MemoryCopy
 .text          0x000000000000c1a4     0x10e8 ./libcsud.a(usbd.c.o)
                0x000000000000c1a4                UsbGetRootHub
                0x000000000000c1b4                UsbPrintDeviceTree
                0x000000000000c280                UsbControlMessage
                0x000000000000c378                UsbGetDescriptor
                0x000000000000c464                UsbGetString
                0x000000000000c4d0                UsbReadStringLang
                0x000000000000c554                UsbReadString
                0x000000000000c654                UsbReadDeviceDescriptor
                0x000000000000c794                UsbSetAddress
                0x000000000000c874                UsbSetConfiguration
                0x000000000000c948                UsbConfigure
                0x000000000000cb18                UsbGetDescription
                0x000000000000cdc8                UsbScanDevice
                0x000000000000cff0                UsbAllocateDevice
                0x000000000000d0ac                UsbDeallocateDevice
                0x000000000000d1c4                UsbScanRootHub
                0x000000000000d214                UsbInitialise
                0x000000000000d270                UsbCheckForChange
 .text          0x000000000000d28c     0x1b24 ./libcsud.a(device.hid.c.o)
                0x000000000000d28c                HidEnumerateActionCountField
                0x000000000000d3b4                HidDetached
                0x000000000000d3f0                HidEnumerateActionAddField
                0x000000000000dbf8                HidDeallocate
                0x000000000000dd4c                HidEnumerateActionCountReport
                0x000000000000de04                HidGetReport
                0x000000000000dec0                HidSetReport
                0x000000000000df70                BitSet
                0x000000000000e09c                BitGetUnsigned
                0x000000000000e1a4                BitGetSigned
                0x000000000000e1d0                HidReadDevice
                0x000000000000e3cc                HidWriteDevice
                0x000000000000e578                HidSetProtocol
                0x000000000000e628                HidEnumerateReport
                0x000000000000e780                HidParseReportDescriptor
                0x000000000000eab0                HidScan
                0x000000000000eda0                HidGetFieldValue
 .text          0x000000000000edb0      0xd34 ./libcsud.a(device.hub.c.o)
                0x000000000000edb0                HubDetached
                0x000000000000ee50                HubDeallocate
                0x000000000000ef2c                HubReadDescriptor
                0x000000000000f024                HubGetStatus
                0x000000000000f0fc                HubPortGetStatus
                0x000000000000f1dc                HubChangeFeature
                0x000000000000f290                HubChangePortFeature
                0x000000000000f34c                HubPowerOn
                0x000000000000f3f4                HubPortReset
                0x000000000000f4c8                HubPortConnectionChanged
                0x000000000000f6d0                HubCheckConnection
                0x000000000000f804                HubRecursiveCheck
                0x000000000000f8cc                HubScan
 .text          0x000000000000fae4     0x160c ./libcsud.a(hcd.designware20.c.o)
                0x000000000000fae4                WriteThroughRegMask
                0x000000000000fb78                WriteThroughReg
                0x000000000000fb80                ReadBackReg
                0x000000000000fc24                ClearReg
                0x000000000000fc8c                SetReg
                0x000000000000fd28                HcdReset
                0x000000000000fdd8                HcdTransmitFifoFlush
                0x000000000000fe6c                HcdReceiveFifoFlush
                0x000000000000fee4                HcdPrepareChannel
                0x00000000000101fc                HcdTransmitChannel
                0x00000000000102a8                HcdChannelInterruptToError
                0x0000000000010384                HcdChannelSendWaitOne
                0x0000000000010640                HcdChannelSendWait
                0x0000000000010758                HcdSumbitControlMessage
                0x00000000000109a0                HcdInitialise
                0x0000000000010b34                HcdStart
                0x0000000000011090                HcdStop
                0x00000000000110b4                HcdDeinitialise
 .text          0x00000000000110f0      0x6f0 ./libcsud.a(hcd.designware20.roothub.c.o)
                0x00000000000110f0                HcdProcessRootHubMessage
 .text          0x00000000000117e0      0x16c ./libcsud.a(platform.armv6.c.o)
                0x00000000000117e0                __aeabi_uidivmod
                0x0000000000011914                __aeabi_uidiv
 .text          0x000000000001194c      0x11c ./libcsud.a(platform.broadcom2835.c.o)
                0x000000000001194c                MicroDelay
                0x00000000000119bc                PowerOnUsb
                0x0000000000011a68                __bss_start = .

.glue_7         0x0000000000011a68        0x0
 .glue_7        0x0000000000000000        0x0 linker stubs

.glue_7t        0x0000000000011a68        0x0
 .glue_7t       0x0000000000000000        0x0 linker stubs

.vfp11_veneer   0x0000000000011a68        0x0
 .vfp11_veneer  0x0000000000000000        0x0 linker stubs

.v4_bx          0x0000000000011a68        0x0
 .v4_bx         0x0000000000000000        0x0 linker stubs

.iplt           0x0000000000011a68        0x0
 .iplt          0x0000000000000000        0x0 build/asm_tools.o

.bss            0x0000000000011a68     0x5008
 *(.bss*)
 .bss           0x0000000000011a68        0x0 build/asm_tools.o
 .bss           0x0000000000011a68       0x20 build/fb.o
                0x0000000000011a68                offsetX
                0x0000000000011a6c                offsetY
 .bss           0x0000000000011a88        0x4 build/hw.o
 .bss           0x0000000000011a8c        0x0 build/init.o
 .bss           0x0000000000011a8c        0x0 build/keyboard.o
 .bss           0x0000000000011a8c        0x4 build/kheap.o
                0x0000000000011a8c                freelist
 .bss           0x0000000000011a90        0x0 build/pwm.o
 .bss           0x0000000000011a90        0x0 build/sched.o
 .bss           0x0000000000011a90        0x0 build/syscall.o
 .bss           0x0000000000011a90        0x0 build/uart.o
 .bss           0x0000000000011a90        0x0 build/util.o
 .bss           0x0000000000011a90        0xc build/kmain.o
                0x0000000000011a90                commandLineSize
                0x0000000000011a94                commandSize
                0x0000000000011a98                parametersSize
 .bss           0x0000000000011a9c       0x14 ./libcsud.a(device.keyboard.c.o)
                0x0000000000011a9c                keyboardAddresses
                0x0000000000011aac                keyboardCount
 .bss           0x0000000000011ab0        0x8 ./libcsud.a(platform.c.o)
                0x0000000000011ab0                FirstFreeAllocation
                0x0000000000011ab4                allocated
 .bss           0x0000000000011ab8        0x4 ./libcsud.a(usbd.c.o)
                0x0000000000011ab8                RootHub
 .bss           0x0000000000011abc        0x0 ./libcsud.a(device.hid.c.o)
 .bss           0x0000000000011abc        0x0 ./libcsud.a(device.hub.c.o)
 .bss           0x0000000000011abc       0x14 ./libcsud.a(hcd.designware20.c.o)
                0x0000000000011abc                Core
                0x0000000000011ac0                Host
                0x0000000000011ac4                Power
                0x0000000000011ac8                databuffer
                0x0000000000011acc                PhyInitialised
 .bss           0x0000000000011ad0        0x4 ./libcsud.a(hcd.designware20.roothub.c.o)
                0x0000000000011ad0                RootHubDeviceNumber
 .bss           0x0000000000011ad4        0x0 ./libcsud.a(platform.armv6.c.o)
 .bss           0x0000000000011ad4        0x0 ./libcsud.a(platform.broadcom2835.c.o)
 COMMON         0x0000000000011ad4        0x8 build/kheap.o
                0x0000000000011ad4                kernel_heap_limit
                0x0000000000011ad8                kernel_heap_top
 COMMON         0x0000000000011adc       0x64 build/sched.o
                0x0000000000011adc                lr_irq
                0x0000000000011ae0                kmain_process
                0x0000000000011b38                stackPointer2
                0x0000000000011b3c                current_process
 COMMON         0x0000000000011b40        0x8 build/syscall.o
                0x0000000000011b40                call
                0x0000000000011b44                stackPointer
 COMMON         0x0000000000011b48        0x4 build/uart.o
                0x0000000000011b48                uart_error
 COMMON         0x0000000000011b4c      0x300 build/kmain.o
                0x0000000000011b4c                commandLine
                0x0000000000011c4c                command
                0x0000000000011d4c                parameters
 COMMON         0x0000000000011e4c       0x10 ./libcsud.a(device.keyboard.c.o)
                0x0000000000011e4c                keyboards
 *fill*         0x0000000000011e5c        0x4 
 COMMON         0x0000000000011e60     0x4c00 ./libcsud.a(platform.c.o)
                0x0000000000011e60                Heap
                0x0000000000015e60                Allocations
 COMMON         0x0000000000016a60        0x4 ./libcsud.a(usbd.c.o)
                0x0000000000016a60                DeviceNumbers
 COMMON         0x0000000000016a64        0xc ./libcsud.a(hcd.designware20.c.o)
                0x0000000000016a64                CorePhysical
                0x0000000000016a68                HostPhysical
                0x0000000000016a6c                PowerPhysical
                0x0000000000016a70                __bss_end__ = .
                0x0000000000016a70                __rodata_start__ = .

.rodata         0x0000000000016a70      0x300
 *(.rodata*)
 .rodata        0x0000000000016a70       0x34 build/fb.o
 .rodata        0x0000000000016aa4       0x18 build/hw.o
 .rodata        0x0000000000016abc       0x10 build/syscall.o
 .rodata        0x0000000000016acc       0x28 build/uart.o
 .rodata        0x0000000000016af4       0x24 build/kmain.o
 .rodata        0x0000000000016b18      0x248 ./libcsud.a(usbd.c.o)
 .rodata.str1.4
                0x0000000000016d60       0x10 ./libcsud.a(usbd.c.o)
                0x0000000000016d70                __rodata_end__ = .
                0x0000000000016d70                __data_start__ = .

.rel.dyn        0x0000000000016d70        0x0
 .rel.iplt      0x0000000000000000        0x0 build/asm_tools.o

.data           0x0000000000016d70      0x554
 *(.data)
 .data          0x0000000000016d70        0x0 build/asm_tools.o
 .data          0x0000000000016d70      0x400 build/fb.o
                0x0000000000016d70                font8x8_basic
 .data          0x0000000000017170        0x0 build/hw.o
 .data          0x0000000000017170        0x0 build/init.o
 .data          0x0000000000017170       0xe0 build/keyboard.o
 .data          0x0000000000017250        0x0 build/kheap.o
 .data          0x0000000000017250        0xc build/pwm.o
 .data          0x000000000001725c        0x0 build/sched.o
 .data          0x000000000001725c        0x0 build/syscall.o
 .data          0x000000000001725c        0x0 build/uart.o
 .data          0x000000000001725c        0x0 build/util.o
 .data          0x000000000001725c        0x0 build/kmain.o
 .data          0x000000000001725c        0x0 ./libcsud.a(device.keyboard.c.o)
 .data          0x000000000001725c        0x4 ./libcsud.a(platform.c.o)
                0x000000000001725c                FirstAllocation
 .data          0x0000000000017260        0x0 ./libcsud.a(usbd.c.o)
 .data          0x0000000000017260        0x0 ./libcsud.a(device.hid.c.o)
 .data          0x0000000000017260        0x0 ./libcsud.a(device.hub.c.o)
 .data          0x0000000000017260        0x0 ./libcsud.a(hcd.designware20.c.o)
 .data          0x0000000000017260       0x64 ./libcsud.a(hcd.designware20.roothub.c.o)
                0x0000000000017260                DeviceDescriptor
                0x0000000000017274                ConfigurationDescriptor
                0x0000000000017290                String0
                0x0000000000017294                String1
                0x00000000000172b8                HubDescriptor
 .data          0x00000000000172c4        0x0 ./libcsud.a(platform.armv6.c.o)
 .data          0x00000000000172c4        0x0 ./libcsud.a(platform.broadcom2835.c.o)
                0x00000000000172c4                __data_end__ = .

.igot.plt       0x00000000000172c4        0x0
 .igot.plt      0x0000000000000000        0x0 build/asm_tools.o

.stack          0x00000000000172c4      0x600
                0x00000000000172c4                __stack_start__ = .
                0x00000000000174c4                . = (. + KERNEL_STACK_SIZE)
 *fill*         0x00000000000172c4      0x200 
                0x00000000000174c4                . = ALIGN (0x4)
                0x00000000000174c4                __svc_stack_end__ = .
                0x00000000000176c4                . = (. + SYS_STACK_SIZE)
 *fill*         0x00000000000174c4      0x200 
                0x00000000000176c4                . = ALIGN (0x4)
                0x00000000000176c4                __sys_stack_end__ = .
                0x00000000000178c4                . = (. + IRQ_STACK_SIZE)
 *fill*         0x00000000000176c4      0x200 
                0x00000000000178c4                . = ALIGN (0x4)
                0x00000000000178c4                __irq_stack_end__ = .
                0x00000000000178c4                __stacks_end__ = .
                0x0000000000018000                . = ALIGN (0x1000)
                0x0000000000018000                __kernel_heap_start__ = .
                0x0000000000ffffff                . = 0xffffff
                0x0000000000ffffff                __kernel_heap_end__ = .
                0x0000000001000000                . = ALIGN (0x1000)
                0x0000000001000000                __after_kernel_heap__ = .
                0x0000000020000000                . = 0x20000000

.devices        0x0000000020000000   0xffffff
                0x0000000020000000                __devices_start__ = .
                0x0000000020ffffff                . = (. + 0xffffff)
 *fill*         0x0000000020000000   0xffffff 
                0x0000000020ffffff                __devices_end__ = .
LOAD ./libcsud.a
OUTPUT(build/kernel.elf elf32-littlearm)

.ARM.attributes
                0x0000000000000000       0x36
 .ARM.attributes
                0x0000000000000000       0x26 build/asm_tools.o
 .ARM.attributes
                0x0000000000000026       0x38 build/fb.o
 .ARM.attributes
                0x000000000000005e       0x38 build/hw.o
 .ARM.attributes
                0x0000000000000096       0x26 build/init.o
 .ARM.attributes
                0x00000000000000bc       0x26 build/keyboard.o
 .ARM.attributes
                0x00000000000000e2       0x38 build/kheap.o
 .ARM.attributes
                0x000000000000011a       0x38 build/pwm.o
 .ARM.attributes
                0x0000000000000152       0x38 build/sched.o
 .ARM.attributes
                0x000000000000018a       0x38 build/syscall.o
 .ARM.attributes
                0x00000000000001c2       0x38 build/uart.o
 .ARM.attributes
                0x00000000000001fa       0x38 build/util.o
 .ARM.attributes
                0x0000000000000232       0x38 build/kmain.o
 .ARM.attributes
                0x000000000000026a       0x32 ./libcsud.a(device.keyboard.c.o)
 .ARM.attributes
                0x000000000000029c       0x32 ./libcsud.a(platform.c.o)
 .ARM.attributes
                0x00000000000002ce       0x32 ./libcsud.a(usbd.c.o)
 .ARM.attributes
                0x0000000000000300       0x32 ./libcsud.a(device.hid.c.o)
 .ARM.attributes
                0x0000000000000332       0x32 ./libcsud.a(device.hub.c.o)
 .ARM.attributes
                0x0000000000000364       0x32 ./libcsud.a(hcd.designware20.c.o)
 .ARM.attributes
                0x0000000000000396       0x32 ./libcsud.a(hcd.designware20.roothub.c.o)
 .ARM.attributes
                0x00000000000003c8       0x32 ./libcsud.a(platform.armv6.c.o)
 .ARM.attributes
                0x00000000000003fa       0x32 ./libcsud.a(platform.broadcom2835.c.o)

.comment        0x0000000000000000       0x30
 .comment       0x0000000000000000       0x1f build/fb.o
                                         0x20 (size before relaxing)
 .comment       0x0000000000000000       0x20 build/hw.o
 .comment       0x0000000000000000       0x20 build/kheap.o
 .comment       0x0000000000000000       0x20 build/pwm.o
 .comment       0x0000000000000000       0x20 build/sched.o
 .comment       0x0000000000000000       0x20 build/syscall.o
 .comment       0x0000000000000000       0x20 build/uart.o
 .comment       0x0000000000000000       0x20 build/util.o
 .comment       0x0000000000000000       0x20 build/kmain.o
 .comment       0x000000000000001f       0x11 ./libcsud.a(device.keyboard.c.o)
                                         0x12 (size before relaxing)
 .comment       0x0000000000000000       0x12 ./libcsud.a(platform.c.o)
 .comment       0x0000000000000000       0x12 ./libcsud.a(usbd.c.o)
 .comment       0x0000000000000000       0x12 ./libcsud.a(device.hid.c.o)
 .comment       0x0000000000000000       0x12 ./libcsud.a(device.hub.c.o)
 .comment       0x0000000000000000       0x12 ./libcsud.a(hcd.designware20.c.o)
 .comment       0x0000000000000000       0x12 ./libcsud.a(hcd.designware20.roothub.c.o)
 .comment       0x0000000000000000       0x12 ./libcsud.a(platform.armv6.c.o)
 .comment       0x0000000000000000       0x12 ./libcsud.a(platform.broadcom2835.c.o)

.debug_line     0x0000000000000000      0x9ee
 .debug_line    0x0000000000000000       0x4e build/asm_tools.o
 .debug_line    0x000000000000004e      0x24b build/fb.o
 .debug_line    0x0000000000000299       0xe0 build/hw.o
 .debug_line    0x0000000000000379       0x67 build/init.o
 .debug_line    0x00000000000003e0       0x9b build/keyboard.o
 .debug_line    0x000000000000047b       0xf4 build/kheap.o
 .debug_line    0x000000000000056f       0x7e build/pwm.o
 .debug_line    0x00000000000005ed      0x12b build/sched.o
 .debug_line    0x0000000000000718       0xc6 build/syscall.o
 .debug_line    0x00000000000007de       0xf5 build/uart.o
 .debug_line    0x00000000000008d3       0x3d build/util.o
 .debug_line    0x0000000000000910       0xde build/kmain.o

.debug_info     0x0000000000000000     0x186d
 .debug_info    0x0000000000000000       0x53 build/asm_tools.o
 .debug_info    0x0000000000000053      0x659 build/fb.o
 .debug_info    0x00000000000006ac      0x29a build/hw.o
 .debug_info    0x0000000000000946       0x4e build/init.o
 .debug_info    0x0000000000000994       0x52 build/keyboard.o
 .debug_info    0x00000000000009e6      0x28b build/kheap.o
 .debug_info    0x0000000000000c71      0x13a build/pwm.o
 .debug_info    0x0000000000000dab      0x39e build/sched.o
 .debug_info    0x0000000000001149      0x234 build/syscall.o
 .debug_info    0x000000000000137d      0x261 build/uart.o
 .debug_info    0x00000000000015de       0x6c build/util.o
 .debug_info    0x000000000000164a      0x223 build/kmain.o

.debug_abbrev   0x0000000000000000      0xa38
 .debug_abbrev  0x0000000000000000       0x14 build/asm_tools.o
 .debug_abbrev  0x0000000000000014      0x213 build/fb.o
 .debug_abbrev  0x0000000000000227      0x146 build/hw.o
 .debug_abbrev  0x000000000000036d       0x14 build/init.o
 .debug_abbrev  0x0000000000000381       0x14 build/keyboard.o
 .debug_abbrev  0x0000000000000395      0x12d build/kheap.o
 .debug_abbrev  0x00000000000004c2       0xaf build/pwm.o
 .debug_abbrev  0x0000000000000571      0x16b build/sched.o
 .debug_abbrev  0x00000000000006dc      0x105 build/syscall.o
 .debug_abbrev  0x00000000000007e1      0x10a build/uart.o
 .debug_abbrev  0x00000000000008eb       0x5c build/util.o
 .debug_abbrev  0x0000000000000947       0xf1 build/kmain.o

.debug_aranges  0x0000000000000000      0x180
 .debug_aranges
                0x0000000000000000       0x20 build/asm_tools.o
 .debug_aranges
                0x0000000000000020       0x20 build/fb.o
 .debug_aranges
                0x0000000000000040       0x20 build/hw.o
 .debug_aranges
                0x0000000000000060       0x20 build/init.o
 .debug_aranges
                0x0000000000000080       0x20 build/keyboard.o
 .debug_aranges
                0x00000000000000a0       0x20 build/kheap.o
 .debug_aranges
                0x00000000000000c0       0x20 build/pwm.o
 .debug_aranges
                0x00000000000000e0       0x20 build/sched.o
 .debug_aranges
                0x0000000000000100       0x20 build/syscall.o
 .debug_aranges
                0x0000000000000120       0x20 build/uart.o
 .debug_aranges
                0x0000000000000140       0x20 build/util.o
 .debug_aranges
                0x0000000000000160       0x20 build/kmain.o

.debug_str      0x0000000000000000      0x806
 .debug_str     0x0000000000000000      0x2d0 build/fb.o
                                        0x310 (size before relaxing)
 .debug_str     0x00000000000002d0      0x10b build/hw.o
                                        0x210 (size before relaxing)
 .debug_str     0x00000000000003db       0xd8 build/kheap.o
                                        0x1e9 (size before relaxing)
 .debug_str     0x00000000000004b3       0x36 build/pwm.o
                                        0x131 (size before relaxing)
 .debug_str     0x00000000000004e9      0x12c build/sched.o
                                        0x257 (size before relaxing)
 .debug_str     0x0000000000000615       0x64 build/syscall.o
                                        0x1b5 (size before relaxing)
 .debug_str     0x0000000000000679       0xbd build/uart.o
                                        0x1c4 (size before relaxing)
 .debug_str     0x0000000000000736       0x1f build/util.o
                                         0x9b (size before relaxing)
 .debug_str     0x0000000000000755       0xb1 build/kmain.o
                                        0x1ba (size before relaxing)

.debug_frame    0x0000000000000000      0x740
 .debug_frame   0x0000000000000000      0x1cc build/fb.o
 .debug_frame   0x00000000000001cc      0x14c build/hw.o
 .debug_frame   0x0000000000000318       0x84 build/kheap.o
 .debug_frame   0x000000000000039c       0x54 build/pwm.o
 .debug_frame   0x00000000000003f0       0xf8 build/sched.o
 .debug_frame   0x00000000000004e8       0xe0 build/syscall.o
 .debug_frame   0x00000000000005c8       0xa0 build/uart.o
 .debug_frame   0x0000000000000668       0x24 build/util.o
 .debug_frame   0x000000000000068c       0xb4 build/kmain.o
